target datalayout = "e-m:e-p270:32:32-p271:32:32-p272:64:64-i64:64-i128:128-f80:128-n8:16:32:64-S128"
target triple = "x86_64-pc-linux-gnu"

; Function Attrs: inlinehint nounwind uwtable
define internal i32 @Gia_AigerReadDiffValue(ptr noundef %0, i32 noundef %1) #2 {
  %3 = alloca i32, align 4
  %4 = alloca ptr, align 8
  %5 = alloca i32, align 4
  %6 = alloca i32, align 4
  %7 = alloca i32, align 4
  store ptr %0, ptr %4, align 8, !tbaa !3
  store i32 %1, ptr %5, align 4, !tbaa !8
  call void @llvm.lifetime.start.p0(i64 4, ptr %6) #10
  %8 = load ptr, ptr %4, align 8, !tbaa !3
  %9 = call i32 @Gia_AigerReadUnsigned(ptr noundef %8)
  store i32 %9, ptr %6, align 4, !tbaa !8
  %10 = load i32, ptr %6, align 4, !tbaa !8
  %11 = and i32 %10, 1
  %12 = icmp ne i32 %11, 0
  br i1 %12, label %13, label %18

13:                                               ; preds = %2
  %14 = load i32, ptr %5, align 4, !tbaa !8
  %15 = load i32, ptr %6, align 4, !tbaa !8
  %16 = ashr i32 %15, 1
  %17 = add nsw i32 %14, %16
  store i32 %17, ptr %3, align 4
  store i32 1, ptr %7, align 4
  br label %23

18:                                               ; preds = %2
  %19 = load i32, ptr %5, align 4, !tbaa !8
  %20 = load i32, ptr %6, align 4, !tbaa !8
  %21 = ashr i32 %20, 1
  %22 = sub nsw i32 %19, %21
  store i32 %22, ptr %3, align 4
  store i32 1, ptr %7, align 4
  br label %23

23:                                               ; preds = %18, %13
  call void @llvm.lifetime.end.p0(i64 4, ptr %6) #10
  %24 = load i32, ptr %3, align 4
  ret i32 %24
}

; Function Attrs: inlinehint nounwind uwtable
define internal i32 @Gia_AigerReadUnsigned(ptr noundef %0) #2 {
  %2 = alloca ptr, align 8
  %3 = alloca i32, align 4
  %4 = alloca i32, align 4
  %5 = alloca i8, align 1
  store ptr %0, ptr %2, align 8, !tbaa !3
  call void @llvm.lifetime.start.p0(i64 4, ptr %3) #10
  store i32 0, ptr %3, align 4, !tbaa !8
  call void @llvm.lifetime.start.p0(i64 4, ptr %4) #10
  store i32 0, ptr %4, align 4, !tbaa !8
  call void @llvm.lifetime.start.p0(i64 1, ptr %5) #10
  br label %6

6:                                                ; preds = %14, %1
  %7 = load ptr, ptr %2, align 8, !tbaa !3
  %8 = load ptr, ptr %7, align 8, !tbaa !10
  %9 = getelementptr inbounds nuw i8, ptr %8, i32 1
  store ptr %9, ptr %7, align 8, !tbaa !10
  %10 = load i8, ptr %8, align 1, !tbaa !17
  store i8 %10, ptr %5, align 1, !tbaa !17
  %11 = zext i8 %10 to i32
  %12 = and i32 %11, 128
  %13 = icmp ne i32 %12, 0
  br i1 %13, label %14, label %24

14:                                               ; preds = %6
  %15 = load i8, ptr %5, align 1, !tbaa !17
  %16 = zext i8 %15 to i32
  %17 = and i32 %16, 127
  %18 = load i32, ptr %4, align 4, !tbaa !8
  %19 = add i32 %18, 1
  store i32 %19, ptr %4, align 4, !tbaa !8
  %20 = mul i32 7, %18
  %21 = shl i32 %17, %20
  %22 = load i32, ptr %3, align 4, !tbaa !8
  %23 = or i32 %22, %21
  store i32 %23, ptr %3, align 4, !tbaa !8
  br label %6, !llvm.loop !19

24:                                               ; preds = %6
  %25 = load i32, ptr %3, align 4, !tbaa !8
  %26 = load i8, ptr %5, align 1, !tbaa !17
  %27 = zext i8 %26 to i32
  %28 = load i32, ptr %4, align 4, !tbaa !8
  %29 = mul i32 7, %28
  %30 = shl i32 %27, %29
  %31 = or i32 %25, %30
  call void @llvm.lifetime.end.p0(i64 1, ptr %5) #10
  call void @llvm.lifetime.end.p0(i64 4, ptr %4) #10
  call void @llvm.lifetime.end.p0(i64 4, ptr %3) #10
  ret i32 %31
}

; Function Attrs: inlinehint nounwind uwtable
define internal i32 @Gia_AigerReadInt(ptr noundef %0) #2 {
  %2 = alloca ptr, align 8
  %3 = alloca i32, align 4
  %4 = alloca i32, align 4
  store ptr %0, ptr %2, align 8, !tbaa !10
  call void @llvm.lifetime.start.p0(i64 4, ptr %3) #10
  call void @llvm.lifetime.start.p0(i64 4, ptr %4) #10
  store i32 0, ptr %4, align 4, !tbaa !8
  store i32 0, ptr %3, align 4, !tbaa !8
  br label %5

5:                                                ; preds = %16, %1
  %6 = load i32, ptr %3, align 4, !tbaa !8
  %7 = icmp slt i32 %6, 4
  br i1 %7, label %8, label %19

8:                                                ; preds = %5
  %9 = load i32, ptr %4, align 4, !tbaa !8
  %10 = shl i32 %9, 8
  %11 = load ptr, ptr %2, align 8, !tbaa !10
  %12 = getelementptr inbounds nuw i8, ptr %11, i32 1
  store ptr %12, ptr %2, align 8, !tbaa !10
  %13 = load i8, ptr %11, align 1, !tbaa !17
  %14 = zext i8 %13 to i32
  %15 = or i32 %10, %14
  store i32 %15, ptr %4, align 4, !tbaa !8
  br label %16

16:                                               ; preds = %8
  %17 = load i32, ptr %3, align 4, !tbaa !8
  %18 = add nsw i32 %17, 1
  store i32 %18, ptr %3, align 4, !tbaa !8
  br label %5, !llvm.loop !18

19:                                               ; preds = %5
  %20 = load i32, ptr %4, align 4, !tbaa !8
  call void @llvm.lifetime.end.p0(i64 4, ptr %4) #10
  call void @llvm.lifetime.end.p0(i64 4, ptr %3) #10
  ret i32 %20
}

; Function Attrs: nounwind uwtable
define ptr @Gia_AigerReadMapping(ptr noundef %0, i32 noundef %1) #0 {
  %3 = alloca ptr, align 8
  %4 = alloca i32, align 4
  %5 = alloca ptr, align 8
  %6 = alloca ptr, align 8
  %7 = alloca i32, align 4
  %8 = alloca i32, align 4
  %9 = alloca i32, align 4
  %10 = alloca i32, align 4
  %11 = alloca i32, align 4
  %12 = alloca i32, align 4
  store ptr %0, ptr %3, align 8, !tbaa !3
  store i32 %1, ptr %4, align 4, !tbaa !8
  call void @llvm.lifetime.start.p0(i64 8, ptr %5) #10
  call void @llvm.lifetime.start.p0(i64 8, ptr %6) #10
  call void @llvm.lifetime.start.p0(i64 4, ptr %7) #10
  call void @llvm.lifetime.start.p0(i64 4, ptr %8) #10
  call void @llvm.lifetime.start.p0(i64 4, ptr %9) #10
  call void @llvm.lifetime.start.p0(i64 4, ptr %10) #10
  call void @llvm.lifetime.start.p0(i64 4, ptr %11) #10
  store i32 0, ptr %11, align 4, !tbaa !8
  call void @llvm.lifetime.start.p0(i64 4, ptr %12) #10
  %13 = load i32, ptr %4, align 4, !tbaa !8
  store i32 %13, ptr %12, align 4, !tbaa !8
  %14 = load ptr, ptr %3, align 8, !tbaa !3
  %15 = load ptr, ptr %14, align 8, !tbaa !10
  store ptr %15, ptr %6, align 8, !tbaa !10
  %16 = load ptr, ptr %3, align 8, !tbaa !3
  %17 = load ptr, ptr %16, align 8, !tbaa !10
  %18 = call i32 @Gia_AigerReadInt(ptr noundef %17)
  %19 = load ptr, ptr %6, align 8, !tbaa !10
  %20 = sext i32 %18 to i64
  %21 = getelementptr inbounds i8, ptr %19, i64 %20
  store ptr %21, ptr %6, align 8, !tbaa !10
  %22 = load ptr, ptr %3, align 8, !tbaa !3
  %23 = load ptr, ptr %22, align 8, !tbaa !10
  %24 = getelementptr inbounds i8, ptr %23, i64 4
  store ptr %24, ptr %22, align 8, !tbaa !10
  %25 = load i32, ptr %4, align 4, !tbaa !8
  %26 = load ptr, ptr %6, align 8, !tbaa !10
  %27 = sext i32 %25 to i64
  %28 = getelementptr inbounds i8, ptr %26, i64 %27
  %29 = load ptr, ptr %3, align 8, !tbaa !3
  %30 = load ptr, ptr %29, align 8, !tbaa !10
  %31 = ptrtoint ptr %28 to i64
  %32 = ptrtoint ptr %30 to i64
  %33 = sub i64 %31, %32
  %34 = trunc i64 %33 to i32
  store i32 %34, ptr %10, align 4, !tbaa !8
  %35 = load i32, ptr %10, align 4, !tbaa !8
  %36 = sext i32 %35 to i64
  %37 = call noalias ptr @calloc(i64 noundef %36, i64 noundef 4) #11
  store ptr %37, ptr %5, align 8, !tbaa !22
  br label %38

38:                                               ; preds = %68, %2
  %39 = load ptr, ptr %3, align 8, !tbaa !3
  %40 = load ptr, ptr %39, align 8, !tbaa !10
  %41 = load ptr, ptr %6, align 8, !tbaa !10
  %42 = icmp ult ptr %40, %41
  br i1 %42, label %43, label %75

43:                                               ; preds = %38
  %44 = load i32, ptr %12, align 4, !tbaa !8
  store i32 %44, ptr %7, align 4, !tbaa !8
  %45 = load ptr, ptr %3, align 8, !tbaa !3
  %46 = call i32 @Gia_AigerReadUnsigned(ptr noundef %45)
  store i32 %46, ptr %9, align 4, !tbaa !8
  %47 = load ptr, ptr %5, align 8, !tbaa !22
  %48 = load i32, ptr %7, align 4, !tbaa !8
  %49 = add nsw i32 %48, 1
  store i32 %49, ptr %7, align 4, !tbaa !8
  %50 = sext i32 %48 to i64
  %51 = getelementptr inbounds i32, ptr %47, i64 %50
  store i32 %46, ptr %51, align 4, !tbaa !8
  store i32 0, ptr %8, align 4, !tbaa !8
  br label %52

52:                                               ; preds = %65, %43
  %53 = load i32, ptr %8, align 4, !tbaa !8
  %54 = load i32, ptr %9, align 4, !tbaa !8
  %55 = icmp sle i32 %53, %54
  br i1 %55, label %56, label %68

56:                                               ; preds = %52
  %57 = load ptr, ptr %3, align 8, !tbaa !3
  %58 = load i32, ptr %11, align 4, !tbaa !8
  %59 = call i32 @Gia_AigerReadDiffValue(ptr noundef %57, i32 noundef %58)
  store i32 %59, ptr %11, align 4, !tbaa !8
  %60 = load ptr, ptr %5, align 8, !tbaa !22
  %61 = load i32, ptr %7, align 4, !tbaa !8
  %62 = add nsw i32 %61, 1
  store i32 %62, ptr %7, align 4, !tbaa !8
  %63 = sext i32 %61 to i64
  %64 = getelementptr inbounds i32, ptr %60, i64 %63
  store i32 %59, ptr %64, align 4, !tbaa !8
  br label %65

65:                                               ; preds = %56
  %66 = load i32, ptr %8, align 4, !tbaa !8
  %67 = add nsw i32 %66, 1
  store i32 %67, ptr %8, align 4, !tbaa !8
  br label %52, !llvm.loop !55

68:                                               ; preds = %52
  %69 = load i32, ptr %12, align 4, !tbaa !8
  %70 = load ptr, ptr %5, align 8, !tbaa !22
  %71 = load i32, ptr %11, align 4, !tbaa !8
  %72 = sext i32 %71 to i64
  %73 = getelementptr inbounds i32, ptr %70, i64 %72
  store i32 %69, ptr %73, align 4, !tbaa !8
  %74 = load i32, ptr %7, align 4, !tbaa !8
  store i32 %74, ptr %12, align 4, !tbaa !8
  br label %38, !llvm.loop !56

75:                                               ; preds = %38
  %76 = load ptr, ptr %5, align 8, !tbaa !22
  call void @llvm.lifetime.end.p0(i64 4, ptr %12) #10
  call void @llvm.lifetime.end.p0(i64 4, ptr %11) #10
  call void @llvm.lifetime.end.p0(i64 4, ptr %10) #10
  call void @llvm.lifetime.end.p0(i64 4, ptr %9) #10
  call void @llvm.lifetime.end.p0(i64 4, ptr %8) #10
  call void @llvm.lifetime.end.p0(i64 4, ptr %7) #10
  call void @llvm.lifetime.end.p0(i64 8, ptr %6) #10
  call void @llvm.lifetime.end.p0(i64 8, ptr %5) #10
  ret ptr %76
}